target datalayout = "e-m:e-p270:32:32-p271:32:32-p272:64:64-i64:64-i128:128-f80:128-n8:16:32:64-S128"
target triple = "x86_64-pc-linux-gnu"

%"struct.net::QuicWindowUpdateFrame" = type { i32, i64 }

; Function Attrs: mustprogress uwtable
define noundef zeroext i1 @_ZN3net10QuicFramer23AppendWindowUpdateFrameERKNS_21QuicWindowUpdateFrameEPNS_14QuicDataWriterE(ptr noundef nonnull align 8 dereferenceable(408) %0, ptr noundef nonnull align 8 dereferenceable(16) %1, ptr noundef %2) #0 align 2 {
  %4 = alloca i1, align 1
  %5 = alloca ptr, align 8
  %6 = alloca ptr, align 8
  %7 = alloca ptr, align 8
  %8 = alloca i32, align 4
  %9 = alloca i32, align 4
  store ptr %0, ptr %5, align 8, !tbaa !3
  store ptr %1, ptr %6, align 8, !tbaa !228
  store ptr %2, ptr %7, align 8, !tbaa !160
  call void @llvm.lifetime.start.p0(i64 4, ptr %8) #17
  %10 = load ptr, ptr %6, align 8, !tbaa !228
  %11 = getelementptr inbounds nuw %"struct.net::QuicWindowUpdateFrame", ptr %10, i32 0, i32 0
  %12 = load i32, ptr %11, align 8, !tbaa !230
  store i32 %12, ptr %8, align 4, !tbaa !85
  %13 = load ptr, ptr %7, align 8, !tbaa !160
  %14 = load i32, ptr %8, align 4, !tbaa !85
  %15 = call noundef zeroext i1 @_ZN3net14QuicDataWriter11WriteUInt32Ej(ptr noundef nonnull align 8 dereferenceable(24) %13, i32 noundef %14)
  br i1 %15, label %17, label %16

16:                                               ; preds = %3
  store i1 false, ptr %4, align 1
  store i32 1, ptr %9, align 4
  br label %25

17:                                               ; preds = %3
  %18 = load ptr, ptr %7, align 8, !tbaa !160
  %19 = load ptr, ptr %6, align 8, !tbaa !228
  %20 = getelementptr inbounds nuw %"struct.net::QuicWindowUpdateFrame", ptr %19, i32 0, i32 1
  %21 = load i64, ptr %20, align 8, !tbaa !232
  %22 = call noundef zeroext i1 @_ZN3net14QuicDataWriter11WriteUInt64Em(ptr noundef nonnull align 8 dereferenceable(24) %18, i64 noundef %21)
  br i1 %22, label %24, label %23

23:                                               ; preds = %17
  store i1 false, ptr %4, align 1
  store i32 1, ptr %9, align 4
  br label %25

24:                                               ; preds = %17
  store i1 true, ptr %4, align 1
  store i32 1, ptr %9, align 4
  br label %25

25:                                               ; preds = %24, %23, %16
  call void @llvm.lifetime.end.p0(i64 4, ptr %8) #17
  %26 = load i1, ptr %4, align 1
  ret i1 %26
}