; Function Attrs: mustprogress uwtable
define noundef zeroext i1 @_ZN3net10QuicFramer23AppendWindowUpdateFrameERKNS_21QuicWindowUpdateFrameEPNS_14QuicDataWriterE(ptr noundef nonnull readnone align 8 captures(none) dereferenceable(408) %0, ptr noundef nonnull readonly align 8 captures(none) dereferenceable(16) %1, ptr noundef nonnull %2) local_unnamed_addr #0 align 2 {
  %4 = load i32, ptr %1, align 8, !tbaa !159
  %5 = tail call noundef zeroext i1 @_ZN3net14QuicDataWriter11WriteUInt32Ej(ptr noundef nonnull align 8 dereferenceable(24) %2, i32 noundef %4)
  br i1 %5, label %6, label %10

6:                                                ; preds = %3
  %7 = getelementptr inbounds nuw i8, ptr %1, i64 8
  %8 = load i64, ptr %7, align 8, !tbaa !161
  %9 = tail call noundef zeroext i1 @_ZN3net14QuicDataWriter11WriteUInt64Em(ptr noundef nonnull align 8 dereferenceable(24) %2, i64 noundef %8)
  br label %10

10:                                               ; preds = %6, %3
  %.0 = phi i1 [ false, %3 ], [ %9, %6 ]
  ret i1 %.0
}